; Function Attrs: mustprogress uwtable
define dso_local void @_ZN14ArgumentParser8Instance4BindERNS_8NonEmptyINSt7__cxx1112basic_stringIcSt11char_traitsIcESaIcEEEEE(ptr noundef nonnull align 8 dereferenceable(97) %0, ptr noundef nonnull align 8 dereferenceable(32) %1) local_unnamed_addr #4 align 2 personality ptr @__gxx_personality_v0 {
_ZNSt8functionIFN14ArgumentParser8ContinueESt17basic_string_viewIcSt11char_traitsIcEEEEC2EOS7_.exit.i.i:
  %2 = alloca %"class.std::function.23", align 8
  %3 = getelementptr inbounds nuw i8, ptr %0, i64 64
  call void @llvm.lifetime.start.p0(i64 32, ptr nonnull %2) #23
  %4 = getelementptr inbounds nuw i8, ptr %2, i64 24
  call void @llvm.memcpy.p0.p0.i64(ptr noundef nonnull align 8 dereferenceable(32) %2, ptr noundef nonnull align 8 dereferenceable(32) %3, i64 16, i1 false), !tbaa.struct !27
  store ptr %0, ptr %3, align 8
  %.sroa.2.0..sroa_idx = getelementptr inbounds nuw i8, ptr %0, i64 72
  store ptr %1, ptr %.sroa.2.0..sroa_idx, align 8
  %5 = getelementptr inbounds nuw i8, ptr %2, i64 16
  %6 = getelementptr inbounds nuw i8, ptr %0, i64 80
  %7 = load ptr, ptr %6, align 8, !tbaa !29
  store ptr %7, ptr %5, align 8, !tbaa !29
  store ptr @"_ZNSt17_Function_handlerIFN14ArgumentParser8ContinueESt17basic_string_viewIcSt11char_traitsIcEEEZNS0_8Instance4BindERNS0_8NonEmptyINSt7__cxx1112basic_stringIcS4_SaIcEEEEEE3$_0E10_M_managerERSt9_Any_dataRKSH_St18_Manager_operation", ptr %6, align 8, !tbaa !29
  %8 = getelementptr inbounds nuw i8, ptr %0, i64 88
  %9 = load ptr, ptr %8, align 8, !tbaa !29
  store ptr %9, ptr %4, align 8, !tbaa !29
  store ptr @"_ZNSt17_Function_handlerIFN14ArgumentParser8ContinueESt17basic_string_viewIcSt11char_traitsIcEEEZNS0_8Instance4BindERNS0_8NonEmptyINSt7__cxx1112basic_stringIcS4_SaIcEEEEEE3$_0E9_M_invokeERKSt9_Any_dataOS5_", ptr %8, align 8, !tbaa !29
  %.not.i.i.i = icmp eq ptr %7, null
  br i1 %.not.i.i.i, label %_ZNSt14_Function_baseD2Ev.exit, label %10

10:                                               ; preds = %_ZNSt8functionIFN14ArgumentParser8ContinueESt17basic_string_viewIcSt11char_traitsIcEEEEC2EOS7_.exit.i.i
  %11 = invoke noundef zeroext i1 %7(ptr noundef nonnull align 8 dereferenceable(32) %2, ptr noundef nonnull align 8 dereferenceable(32) %2, i32 noundef 3)
          to label %_ZNSt14_Function_baseD2Ev.exit unwind label %12

12:                                               ; preds = %10
  %13 = landingpad { ptr, i32 }
          catch ptr null
  %14 = extractvalue { ptr, i32 } %13, 0
  call void @__clang_call_terminate(ptr %14) #24
  unreachable

_ZNSt14_Function_baseD2Ev.exit:                   ; preds = %10, %_ZNSt8functionIFN14ArgumentParser8ContinueESt17basic_string_viewIcSt11char_traitsIcEEEEC2EOS7_.exit.i.i
  call void @llvm.lifetime.end.p0(i64 32, ptr nonnull %2) #23
  %15 = getelementptr inbounds nuw i8, ptr %0, i64 56
  store i64 1, ptr %15, align 8, !tbaa !30
  ret void
}